target datalayout = "e-m:e-p270:32:32-p271:32:32-p272:64:64-i64:64-i128:128-f80:128-n8:16:32:64-S128"
target triple = "x86_64-pc-linux-gnu"

@hf_mbim_ms_snssai_length = internal global i32 0, align 4
@hf_mbim_ms_snssai_slice_service_type = internal global i32 0, align 4
@hf_mbim_ms_snssai_slice_differentiator = internal global i32 0, align 4
@hf_mbim_ms_snssai_mapped_slice_service_type = internal global i32 0, align 4
@hf_mbim_ms_snssai_mapped_slice_differentiator = internal global i32 0, align 4

; Function Attrs: nounwind uwtable
define internal void @mbim_dissect_snssai(ptr noundef %0, ptr noundef %1, ptr noundef %2) #0 {
  %4 = alloca ptr, align 8
  %5 = alloca ptr, align 8
  %6 = alloca ptr, align 8
  %7 = alloca i32, align 4
  store ptr %0, ptr %4, align 8
  store ptr %1, ptr %5, align 8
  store ptr %2, ptr %6, align 8
  %8 = load ptr, ptr %5, align 8
  %9 = load i32, ptr @hf_mbim_ms_snssai_length, align 4
  %10 = load ptr, ptr %4, align 8
  %11 = load ptr, ptr %6, align 8
  %12 = load i32, ptr %11, align 4
  %13 = call ptr @proto_tree_add_item_ret_uint(ptr noundef %8, i32 noundef %9, ptr noundef %10, i32 noundef %12, i32 noundef 1, i32 noundef -2147483648, ptr noundef %7)
  %14 = load ptr, ptr %6, align 8
  %15 = load i32, ptr %14, align 4
  %16 = add i32 %15, 1
  store i32 %16, ptr %14, align 4
  %17 = load ptr, ptr %5, align 8
  %18 = load i32, ptr @hf_mbim_ms_snssai_slice_service_type, align 4
  %19 = load ptr, ptr %4, align 8
  %20 = load ptr, ptr %6, align 8
  %21 = load i32, ptr %20, align 4
  %22 = call ptr @proto_tree_add_item(ptr noundef %17, i32 noundef %18, ptr noundef %19, i32 noundef %21, i32 noundef 1, i32 noundef -2147483648)
  %23 = load ptr, ptr %6, align 8
  %24 = load i32, ptr %23, align 4
  %25 = add i32 %24, 1
  store i32 %25, ptr %23, align 4
  %26 = load i32, ptr %7, align 4
  %27 = icmp uge i32 %26, 4
  br i1 %27, label %28, label %38

28:                                               ; preds = %3
  %29 = load ptr, ptr %5, align 8
  %30 = load i32, ptr @hf_mbim_ms_snssai_slice_differentiator, align 4
  %31 = load ptr, ptr %4, align 8
  %32 = load ptr, ptr %6, align 8
  %33 = load i32, ptr %32, align 4
  %34 = call ptr @proto_tree_add_item(ptr noundef %29, i32 noundef %30, ptr noundef %31, i32 noundef %33, i32 noundef 3, i32 noundef -2147483648)
  %35 = load ptr, ptr %6, align 8
  %36 = load i32, ptr %35, align 4
  %37 = add i32 %36, 3
  store i32 %37, ptr %35, align 4
  br label %38

38:                                               ; preds = %28, %3
  %39 = load i32, ptr %7, align 4
  %40 = icmp eq i32 %39, 2
  br i1 %40, label %44, label %41

41:                                               ; preds = %38
  %42 = load i32, ptr %7, align 4
  %43 = icmp uge i32 %42, 5
  br i1 %43, label %44, label %54

44:                                               ; preds = %41, %38
  %45 = load ptr, ptr %5, align 8
  %46 = load i32, ptr @hf_mbim_ms_snssai_mapped_slice_service_type, align 4
  %47 = load ptr, ptr %4, align 8
  %48 = load ptr, ptr %6, align 8
  %49 = load i32, ptr %48, align 4
  %50 = call ptr @proto_tree_add_item(ptr noundef %45, i32 noundef %46, ptr noundef %47, i32 noundef %49, i32 noundef 1, i32 noundef -2147483648)
  %51 = load ptr, ptr %6, align 8
  %52 = load i32, ptr %51, align 4
  %53 = add i32 %52, 1
  store i32 %53, ptr %51, align 4
  br label %54

54:                                               ; preds = %44, %41
  %55 = load i32, ptr %7, align 4
  %56 = icmp eq i32 %55, 8
  br i1 %56, label %57, label %67

57:                                               ; preds = %54
  %58 = load ptr, ptr %5, align 8
  %59 = load i32, ptr @hf_mbim_ms_snssai_mapped_slice_differentiator, align 4
  %60 = load ptr, ptr %4, align 8
  %61 = load ptr, ptr %6, align 8
  %62 = load i32, ptr %61, align 4
  %63 = call ptr @proto_tree_add_item(ptr noundef %58, i32 noundef %59, ptr noundef %60, i32 noundef %62, i32 noundef 3, i32 noundef -2147483648)
  %64 = load ptr, ptr %6, align 8
  %65 = load i32, ptr %64, align 4
  %66 = add i32 %65, 3
  store i32 %66, ptr %64, align 4
  br label %67

67:                                               ; preds = %57, %54
  ret void
}