; Function Attrs: nounwind uwtable
define internal fastcc void @mbim_dissect_snssai(ptr noundef %0, ptr noundef %1, ptr noundef nonnull captures(none) %2) unnamed_addr #0 {
  %4 = alloca i32, align 4
  %5 = load i32, ptr @hf_mbim_ms_snssai_length, align 4
  %6 = load i32, ptr %2, align 4
  %7 = call ptr @proto_tree_add_item_ret_uint(ptr noundef %1, i32 noundef %5, ptr noundef %0, i32 noundef %6, i32 noundef 1, i32 noundef -2147483648, ptr noundef nonnull %4) #10
  %8 = load i32, ptr %2, align 4
  %9 = add i32 %8, 1
  store i32 %9, ptr %2, align 4
  %10 = load i32, ptr @hf_mbim_ms_snssai_slice_service_type, align 4
  %11 = call ptr @proto_tree_add_item(ptr noundef %1, i32 noundef %10, ptr noundef %0, i32 noundef %9, i32 noundef 1, i32 noundef -2147483648) #10
  %12 = load i32, ptr %2, align 4
  %13 = add i32 %12, 1
  store i32 %13, ptr %2, align 4
  %14 = load i32, ptr %4, align 4
  %15 = icmp ugt i32 %14, 3
  br i1 %15, label %16, label %21

16:                                               ; preds = %3
  %17 = load i32, ptr @hf_mbim_ms_snssai_slice_differentiator, align 4
  %18 = call ptr @proto_tree_add_item(ptr noundef %1, i32 noundef %17, ptr noundef %0, i32 noundef %13, i32 noundef 3, i32 noundef -2147483648) #10
  %19 = load i32, ptr %2, align 4
  %20 = add i32 %19, 3
  store i32 %20, ptr %2, align 4
  %.pre = load i32, ptr %4, align 4
  br label %21

21:                                               ; preds = %16, %3
  %22 = phi i32 [ %20, %16 ], [ %13, %3 ]
  %23 = phi i32 [ %.pre, %16 ], [ %14, %3 ]
  %24 = icmp eq i32 %23, 2
  %25 = icmp ugt i32 %23, 4
  %or.cond = or i1 %24, %25
  br i1 %or.cond, label %26, label %.thread

26:                                               ; preds = %21
  %27 = load i32, ptr @hf_mbim_ms_snssai_mapped_slice_service_type, align 4
  %28 = call ptr @proto_tree_add_item(ptr noundef %1, i32 noundef %27, ptr noundef %0, i32 noundef %22, i32 noundef 1, i32 noundef -2147483648) #10
  %29 = load i32, ptr %2, align 4
  %30 = add i32 %29, 1
  store i32 %30, ptr %2, align 4
  %.pr = load i32, ptr %4, align 4
  %31 = icmp eq i32 %.pr, 8
  br i1 %31, label %32, label %.thread

32:                                               ; preds = %26
  %33 = load i32, ptr @hf_mbim_ms_snssai_mapped_slice_differentiator, align 4
  %34 = call ptr @proto_tree_add_item(ptr noundef %1, i32 noundef %33, ptr noundef %0, i32 noundef %30, i32 noundef 3, i32 noundef -2147483648) #10
  %35 = load i32, ptr %2, align 4
  %36 = add i32 %35, 3
  store i32 %36, ptr %2, align 4
  br label %.thread

.thread:                                          ; preds = %21, %32, %26
  ret void
}